(dp0
S'age'
p1
S'26'
p2
sS'name'
p3
S'Osnaldy'
p4
sS'weight'
p5
S'190'
p6
s.(dp0
S'age'
p1
S'37'
p2
sS'name'
p3
S'Tempo'
p4
sS'weight'
p5
S'220'
p6
s.(dp0
S'age'
p1
S'15'
p2
sS'name'
p3
S'Victor'
p4
sS'weight'
p5
S'150'
p6
s.