(dp0
S'ID_Number'
p1
S'OS344'
p2
sS'Department'
p3
S'CSC'
p4
sS'Name'
p5
S'Ostempo'
p6
sS'Job_Title'
p7
S'Back end'
p8
s.(dp0
S'ID_Number'
p1
S'QQ2s!'
p2
sS'Department'
p3
S'CSC'
p4
sS'Name'
p5
S'Osnald'
p6
sS'Job_Title'
p7
S'Java'
p8
s.